; Function Attrs: mustprogress nofree norecurse nosync nounwind willreturn memory(read, inaccessiblemem: none) uwtable
define internal range(i32 -1, 2) i32 @_sort_usable_nodes_dec(ptr noundef readonly captures(none) %0, ptr noundef readonly captures(none) %1) #9 {
  %3 = load ptr, ptr %0, align 8
  %4 = load ptr, ptr %1, align 8
  %5 = getelementptr inbounds nuw i8, ptr %3, i64 216
  %6 = load ptr, ptr %5, align 8
  %7 = getelementptr inbounds nuw i8, ptr %6, i64 476
  %8 = load i32, ptr %7, align 4
  %9 = getelementptr inbounds nuw i8, ptr %4, i64 216
  %10 = load ptr, ptr %9, align 8
  %11 = getelementptr inbounds nuw i8, ptr %10, i64 476
  %12 = load i32, ptr %11, align 4
  %.0 = tail call i32 @llvm.ucmp.i32.i32(i32 %12, i32 %8)
  ret i32 %.0
}